target datalayout = "e-m:e-p270:32:32-p271:32:32-p272:64:64-i64:64-i128:128-f80:128-n8:16:32:64-S128"
target triple = "x86_64-pc-linux-gnu"

%"class.std::allocator.437" = type { i8 }
%"struct.std::_Vector_base.436" = type { %"struct.std::_Vector_base<El, std::allocator<El>>::_Vector_impl" }
%"struct.std::_Vector_base<El, std::allocator<El>>::_Vector_impl" = type { %"struct.std::_Vector_base<El, std::allocator<El>>::_Vector_impl_data" }
%"struct.std::_Vector_base<El, std::allocator<El>>::_Vector_impl_data" = type { ptr, ptr, ptr }
%"class.std::vector.435" = type { %"struct.std::_Vector_base.436" }

; Function Attrs: mustprogress nounwind optsize uwtable
define internal void @_ZNSt15__new_allocatorIZL38nanobind_init_test_stl_bind_vector_extRN8nanobind7module_EE2ElE10deallocateEPS3_m(ptr noundef nonnull align 1 dereferenceable(1) %0, ptr noundef %1, i64 noundef %2) #8 align 2 {
  %4 = alloca ptr, align 8
  %5 = alloca ptr, align 8
  %6 = alloca i64, align 8
  store ptr %0, ptr %4, align 8, !tbaa !681
  store ptr %1, ptr %5, align 8, !tbaa !650
  store i64 %2, ptr %6, align 8, !tbaa !104
  %7 = load ptr, ptr %5, align 8, !tbaa !650
  %8 = load i64, ptr %6, align 8, !tbaa !104
  %9 = mul i64 %8, 4
  call void @_ZdlPvm(ptr noundef %7, i64 noundef %9) #26
  ret void
}

; Function Attrs: mustprogress optsize uwtable
define internal void @_ZNSt16allocator_traitsISaIZL38nanobind_init_test_stl_bind_vector_extRN8nanobind7module_EE2ElEE10deallocateERS4_PS3_m(ptr noundef nonnull align 1 dereferenceable(1) %0, ptr noundef %1, i64 noundef %2) #0 align 2 {
  %4 = alloca ptr, align 8
  %5 = alloca ptr, align 8
  %6 = alloca i64, align 8
  store ptr %0, ptr %4, align 8, !tbaa !677
  store ptr %1, ptr %5, align 8, !tbaa !650
  store i64 %2, ptr %6, align 8, !tbaa !104
  %7 = load ptr, ptr %4, align 8, !tbaa !677
  %8 = load ptr, ptr %5, align 8, !tbaa !650
  %9 = load i64, ptr %6, align 8, !tbaa !104
  call void @_ZNSt15__new_allocatorIZL38nanobind_init_test_stl_bind_vector_extRN8nanobind7module_EE2ElE10deallocateEPS3_m(ptr noundef nonnull align 1 dereferenceable(1) %7, ptr noundef %8, i64 noundef %9) #20
  ret void
}

; Function Attrs: mustprogress nounwind optsize uwtable
define internal void @_ZNSt12_Destroy_auxILb1EE9__destroyIPZL38nanobind_init_test_stl_bind_vector_extRN8nanobind7module_EE2ElEEvT_S7_(ptr noundef %0, ptr noundef %1) #8 align 2 {
  %3 = alloca ptr, align 8
  %4 = alloca ptr, align 8
  store ptr %0, ptr %3, align 8, !tbaa !650
  store ptr %1, ptr %4, align 8, !tbaa !650
  ret void
}

; Function Attrs: mustprogress optsize uwtable
define internal void @_ZNSt12_Vector_baseIZL38nanobind_init_test_stl_bind_vector_extRN8nanobind7module_EE2ElSaIS3_EE13_M_deallocateEPS3_m(ptr noundef nonnull align 8 dereferenceable(24) %0, ptr noundef %1, i64 noundef %2) #0 align 2 {
  %4 = alloca ptr, align 8
  %5 = alloca ptr, align 8
  %6 = alloca i64, align 8
  store ptr %0, ptr %4, align 8, !tbaa !679
  store ptr %1, ptr %5, align 8, !tbaa !650
  store i64 %2, ptr %6, align 8, !tbaa !104
  %7 = load ptr, ptr %4, align 8
  %8 = load ptr, ptr %5, align 8, !tbaa !650
  %9 = icmp ne ptr %8, null
  br i1 %9, label %10, label %14

10:                                               ; preds = %3
  %11 = getelementptr inbounds nuw %"struct.std::_Vector_base.436", ptr %7, i32 0, i32 0
  %12 = load ptr, ptr %5, align 8, !tbaa !650
  %13 = load i64, ptr %6, align 8, !tbaa !104
  call void @_ZNSt16allocator_traitsISaIZL38nanobind_init_test_stl_bind_vector_extRN8nanobind7module_EE2ElEE10deallocateERS4_PS3_m(ptr noundef nonnull align 1 dereferenceable(1) %11, ptr noundef %12, i64 noundef %13) #20
  br label %14

14:                                               ; preds = %10, %3
  ret void
}

; Function Attrs: inlinehint mustprogress optsize uwtable
define internal void @_ZSt8_DestroyIPZL38nanobind_init_test_stl_bind_vector_extRN8nanobind7module_EE2ElEvT_S5_(ptr noundef %0, ptr noundef %1) #9 {
  %3 = alloca ptr, align 8
  %4 = alloca ptr, align 8
  store ptr %0, ptr %3, align 8, !tbaa !650
  store ptr %1, ptr %4, align 8, !tbaa !650
  %5 = load ptr, ptr %3, align 8, !tbaa !650
  %6 = load ptr, ptr %4, align 8, !tbaa !650
  call void @_ZNSt12_Destroy_auxILb1EE9__destroyIPZL38nanobind_init_test_stl_bind_vector_extRN8nanobind7module_EE2ElEEvT_S7_(ptr noundef %5, ptr noundef %6) #20
  ret void
}

; Function Attrs: mustprogress nounwind optsize uwtable
define internal void @_ZNSt12_Vector_baseIZL38nanobind_init_test_stl_bind_vector_extRN8nanobind7module_EE2ElSaIS3_EE12_Vector_implC2ERKS4_(ptr noundef nonnull align 8 dereferenceable(24) %0, ptr noundef nonnull align 1 dereferenceable(1) %1) unnamed_addr #8 align 2 {
  %3 = alloca ptr, align 8
  %4 = alloca ptr, align 8
  store ptr %0, ptr %3, align 8, !tbaa !685
  store ptr %1, ptr %4, align 8, !tbaa !677
  %5 = load ptr, ptr %3, align 8
  %6 = load ptr, ptr %4, align 8, !tbaa !677
  call void @_ZNSaIZL38nanobind_init_test_stl_bind_vector_extRN8nanobind7module_EE2ElEC2ERKS3_(ptr noundef nonnull align 1 dereferenceable(1) %5, ptr noundef nonnull align 1 dereferenceable(1) %6) #22
  call void @_ZNSt12_Vector_baseIZL38nanobind_init_test_stl_bind_vector_extRN8nanobind7module_EE2ElSaIS3_EE17_Vector_impl_dataC2Ev(ptr noundef nonnull align 8 dereferenceable(24) %5) #22
  ret void
}

; Function Attrs: mustprogress nounwind optsize uwtable
define internal void @_ZNSt15__new_allocatorIZL38nanobind_init_test_stl_bind_vector_extRN8nanobind7module_EE2ElEC2ERKS4_(ptr noundef nonnull align 1 dereferenceable(1) %0, ptr noundef nonnull align 1 dereferenceable(1) %1) unnamed_addr #8 align 2 {
  %3 = alloca ptr, align 8
  %4 = alloca ptr, align 8
  store ptr %0, ptr %3, align 8, !tbaa !681
  store ptr %1, ptr %4, align 8, !tbaa !681
  ret void
}

; Function Attrs: mustprogress nounwind optsize uwtable
define internal void @_ZNSt12_Vector_baseIZL38nanobind_init_test_stl_bind_vector_extRN8nanobind7module_EE2ElSaIS3_EED2Ev(ptr noundef nonnull align 8 dereferenceable(24) %0) unnamed_addr #8 align 2 personality ptr @__gxx_personality_v0 {
  %2 = alloca ptr, align 8
  store ptr %0, ptr %2, align 8, !tbaa !679
  %3 = load ptr, ptr %2, align 8
  %4 = getelementptr inbounds nuw %"struct.std::_Vector_base.436", ptr %3, i32 0, i32 0
  %5 = getelementptr inbounds nuw %"struct.std::_Vector_base<El, std::allocator<El>>::_Vector_impl_data", ptr %4, i32 0, i32 0
  %6 = load ptr, ptr %5, align 8, !tbaa !674
  %7 = getelementptr inbounds nuw %"struct.std::_Vector_base.436", ptr %3, i32 0, i32 0
  %8 = getelementptr inbounds nuw %"struct.std::_Vector_base<El, std::allocator<El>>::_Vector_impl_data", ptr %7, i32 0, i32 2
  %9 = load ptr, ptr %8, align 8, !tbaa !684
  %10 = getelementptr inbounds nuw %"struct.std::_Vector_base.436", ptr %3, i32 0, i32 0
  %11 = getelementptr inbounds nuw %"struct.std::_Vector_base<El, std::allocator<El>>::_Vector_impl_data", ptr %10, i32 0, i32 0
  %12 = load ptr, ptr %11, align 8, !tbaa !674
  %13 = ptrtoint ptr %9 to i64
  %14 = ptrtoint ptr %12 to i64
  %15 = sub i64 %13, %14
  %16 = sdiv exact i64 %15, 4
  invoke void @_ZNSt12_Vector_baseIZL38nanobind_init_test_stl_bind_vector_extRN8nanobind7module_EE2ElSaIS3_EE13_M_deallocateEPS3_m(ptr noundef nonnull align 8 dereferenceable(24) %3, ptr noundef %6, i64 noundef %16) #20
          to label %17 unwind label %19

17:                                               ; preds = %1
  %18 = getelementptr inbounds nuw %"struct.std::_Vector_base.436", ptr %3, i32 0, i32 0
  call void @_ZNSt15__new_allocatorIZL38nanobind_init_test_stl_bind_vector_extRN8nanobind7module_EE2ElED2Ev(ptr noundef nonnull align 8 dereferenceable(24) %18) #22
  ret void

19:                                               ; preds = %1
  %20 = landingpad { ptr, i32 }
          catch ptr null
  %21 = extractvalue { ptr, i32 } %20, 0
  call void @__clang_call_terminate(ptr %21) #23
  unreachable
}

; Function Attrs: inlinehint mustprogress optsize uwtable
define internal void @_ZSt8_DestroyIPZL38nanobind_init_test_stl_bind_vector_extRN8nanobind7module_EE2ElS3_EvT_S5_RSaIT0_E(ptr noundef %0, ptr noundef %1, ptr noundef nonnull align 1 dereferenceable(1) %2) #9 {
  %4 = alloca ptr, align 8
  %5 = alloca ptr, align 8
  %6 = alloca ptr, align 8
  store ptr %0, ptr %4, align 8, !tbaa !650
  store ptr %1, ptr %5, align 8, !tbaa !650
  store ptr %2, ptr %6, align 8, !tbaa !677
  %7 = load ptr, ptr %4, align 8, !tbaa !650
  %8 = load ptr, ptr %5, align 8, !tbaa !650
  call void @_ZSt8_DestroyIPZL38nanobind_init_test_stl_bind_vector_extRN8nanobind7module_EE2ElEvT_S5_(ptr noundef %7, ptr noundef %8) #20
  ret void
}

; Function Attrs: mustprogress nounwind optsize uwtable
define internal void @_ZNSt12_Vector_baseIZL38nanobind_init_test_stl_bind_vector_extRN8nanobind7module_EE2ElSaIS3_EE17_Vector_impl_data12_M_copy_dataERKS6_(ptr noundef nonnull align 8 dereferenceable(24) %0, ptr noundef nonnull align 8 dereferenceable(24) %1) #8 align 2 {
  %3 = alloca ptr, align 8
  %4 = alloca ptr, align 8
  store ptr %0, ptr %3, align 8, !tbaa !695
  store ptr %1, ptr %4, align 8, !tbaa !695
  %5 = load ptr, ptr %3, align 8
  %6 = load ptr, ptr %4, align 8, !tbaa !695
  %7 = getelementptr inbounds nuw %"struct.std::_Vector_base<El, std::allocator<El>>::_Vector_impl_data", ptr %6, i32 0, i32 0
  %8 = load ptr, ptr %7, align 8, !tbaa !674
  %9 = getelementptr inbounds nuw %"struct.std::_Vector_base<El, std::allocator<El>>::_Vector_impl_data", ptr %5, i32 0, i32 0
  store ptr %8, ptr %9, align 8, !tbaa !674
  %10 = load ptr, ptr %4, align 8, !tbaa !695
  %11 = getelementptr inbounds nuw %"struct.std::_Vector_base<El, std::allocator<El>>::_Vector_impl_data", ptr %10, i32 0, i32 1
  %12 = load ptr, ptr %11, align 8, !tbaa !676
  %13 = getelementptr inbounds nuw %"struct.std::_Vector_base<El, std::allocator<El>>::_Vector_impl_data", ptr %5, i32 0, i32 1
  store ptr %12, ptr %13, align 8, !tbaa !676
  %14 = load ptr, ptr %4, align 8, !tbaa !695
  %15 = getelementptr inbounds nuw %"struct.std::_Vector_base<El, std::allocator<El>>::_Vector_impl_data", ptr %14, i32 0, i32 2
  %16 = load ptr, ptr %15, align 8, !tbaa !684
  %17 = getelementptr inbounds nuw %"struct.std::_Vector_base<El, std::allocator<El>>::_Vector_impl_data", ptr %5, i32 0, i32 2
  store ptr %16, ptr %17, align 8, !tbaa !684
  ret void
}

; Function Attrs: mustprogress nounwind optsize uwtable
define internal void @_ZNSt12_Vector_baseIZL38nanobind_init_test_stl_bind_vector_extRN8nanobind7module_EE2ElSaIS3_EE17_Vector_impl_dataC2Ev(ptr noundef nonnull align 8 dereferenceable(24) %0) unnamed_addr #8 align 2 {
  %2 = alloca ptr, align 8
  store ptr %0, ptr %2, align 8, !tbaa !695
  %3 = load ptr, ptr %2, align 8
  %4 = getelementptr inbounds nuw %"struct.std::_Vector_base<El, std::allocator<El>>::_Vector_impl_data", ptr %3, i32 0, i32 0
  store ptr null, ptr %4, align 8, !tbaa !674
  %5 = getelementptr inbounds nuw %"struct.std::_Vector_base<El, std::allocator<El>>::_Vector_impl_data", ptr %3, i32 0, i32 1
  store ptr null, ptr %5, align 8, !tbaa !676
  %6 = getelementptr inbounds nuw %"struct.std::_Vector_base<El, std::allocator<El>>::_Vector_impl_data", ptr %3, i32 0, i32 2
  store ptr null, ptr %6, align 8, !tbaa !684
  ret void
}

; Function Attrs: mustprogress nounwind optsize uwtable
define internal void @_ZNSt12_Vector_baseIZL38nanobind_init_test_stl_bind_vector_extRN8nanobind7module_EE2ElSaIS3_EEC2ERKS4_(ptr noundef nonnull align 8 dereferenceable(24) %0, ptr noundef nonnull align 1 dereferenceable(1) %1) unnamed_addr #8 align 2 {
  %3 = alloca ptr, align 8
  %4 = alloca ptr, align 8
  store ptr %0, ptr %3, align 8, !tbaa !679
  store ptr %1, ptr %4, align 8, !tbaa !677
  %5 = load ptr, ptr %3, align 8
  %6 = getelementptr inbounds nuw %"struct.std::_Vector_base.436", ptr %5, i32 0, i32 0
  %7 = load ptr, ptr %4, align 8, !tbaa !677
  call void @_ZNSt12_Vector_baseIZL38nanobind_init_test_stl_bind_vector_extRN8nanobind7module_EE2ElSaIS3_EE12_Vector_implC2ERKS4_(ptr noundef nonnull align 8 dereferenceable(24) %6, ptr noundef nonnull align 1 dereferenceable(1) %7) #22
  ret void
}

; Function Attrs: mustprogress nounwind optsize uwtable
define internal void @_ZNSaIZL38nanobind_init_test_stl_bind_vector_extRN8nanobind7module_EE2ElEC2ERKS3_(ptr noundef nonnull align 1 dereferenceable(1) %0, ptr noundef nonnull align 1 dereferenceable(1) %1) unnamed_addr #8 align 2 {
  %3 = alloca ptr, align 8
  %4 = alloca ptr, align 8
  store ptr %0, ptr %3, align 8, !tbaa !677
  store ptr %1, ptr %4, align 8, !tbaa !677
  %5 = load ptr, ptr %3, align 8
  %6 = load ptr, ptr %4, align 8, !tbaa !677
  call void @_ZNSt15__new_allocatorIZL38nanobind_init_test_stl_bind_vector_extRN8nanobind7module_EE2ElEC2ERKS4_(ptr noundef nonnull align 1 dereferenceable(1) %5, ptr noundef nonnull align 1 dereferenceable(1) %6) #22
  ret void
}

; Function Attrs: mustprogress nounwind optsize uwtable
define internal noundef nonnull align 1 dereferenceable(1) ptr @_ZNKSt12_Vector_baseIZL38nanobind_init_test_stl_bind_vector_extRN8nanobind7module_EE2ElSaIS3_EE19_M_get_Tp_allocatorEv(ptr noundef nonnull align 8 dereferenceable(24) %0) #8 align 2 {
  %2 = alloca ptr, align 8
  store ptr %0, ptr %2, align 8, !tbaa !679
  %3 = load ptr, ptr %2, align 8
  %4 = getelementptr inbounds nuw %"struct.std::_Vector_base.436", ptr %3, i32 0, i32 0
  ret ptr %4
}

; Function Attrs: noinline noreturn nounwind optsize uwtable
define linkonce_odr hidden void @__clang_call_terminate(ptr noundef %0) #7 comdat {
  %2 = call ptr @__cxa_begin_catch(ptr %0) #21
  call void @_ZSt9terminatev() #23
  unreachable
}

; Function Attrs: mustprogress nounwind optsize uwtable
define internal void @_ZNSt6vectorIZL38nanobind_init_test_stl_bind_vector_extRN8nanobind7module_EE2ElSaIS3_EED2Ev(ptr noundef nonnull align 8 dereferenceable(24) %0) unnamed_addr #8 align 2 personality ptr @__gxx_personality_v0 {
  %2 = alloca ptr, align 8
  store ptr %0, ptr %2, align 8, !tbaa !672
  %3 = load ptr, ptr %2, align 8
  %4 = getelementptr inbounds nuw %"struct.std::_Vector_base.436", ptr %3, i32 0, i32 0
  %5 = getelementptr inbounds nuw %"struct.std::_Vector_base<El, std::allocator<El>>::_Vector_impl_data", ptr %4, i32 0, i32 0
  %6 = load ptr, ptr %5, align 8, !tbaa !674
  %7 = getelementptr inbounds nuw %"struct.std::_Vector_base.436", ptr %3, i32 0, i32 0
  %8 = getelementptr inbounds nuw %"struct.std::_Vector_base<El, std::allocator<El>>::_Vector_impl_data", ptr %7, i32 0, i32 1
  %9 = load ptr, ptr %8, align 8, !tbaa !676
  %10 = call noundef nonnull align 1 dereferenceable(1) ptr @_ZNSt12_Vector_baseIZL38nanobind_init_test_stl_bind_vector_extRN8nanobind7module_EE2ElSaIS3_EE19_M_get_Tp_allocatorEv(ptr noundef nonnull align 8 dereferenceable(24) %3) #22
  invoke void @_ZSt8_DestroyIPZL38nanobind_init_test_stl_bind_vector_extRN8nanobind7module_EE2ElS3_EvT_S5_RSaIT0_E(ptr noundef %6, ptr noundef %9, ptr noundef nonnull align 1 dereferenceable(1) %10) #20
          to label %11 unwind label %12

11:                                               ; preds = %1
  call void @_ZNSt12_Vector_baseIZL38nanobind_init_test_stl_bind_vector_extRN8nanobind7module_EE2ElSaIS3_EED2Ev(ptr noundef nonnull align 8 dereferenceable(24) %3) #22
  ret void

12:                                               ; preds = %1
  %13 = landingpad { ptr, i32 }
          catch ptr null
  %14 = extractvalue { ptr, i32 } %13, 0
  call void @__clang_call_terminate(ptr %14) #23
  unreachable
}

; Function Attrs: inlinehint mustprogress nounwind optsize uwtable
define internal void @_ZSt15__alloc_on_moveISaIZL38nanobind_init_test_stl_bind_vector_extRN8nanobind7module_EE2ElEEvRT_S6_(ptr noundef nonnull align 1 dereferenceable(1) %0, ptr noundef nonnull align 1 dereferenceable(1) %1) #11 {
  %3 = alloca ptr, align 8
  %4 = alloca ptr, align 8
  store ptr %0, ptr %3, align 8, !tbaa !677
  store ptr %1, ptr %4, align 8, !tbaa !677
  ret void
}

; Function Attrs: mustprogress nounwind optsize uwtable
define internal noundef nonnull align 1 dereferenceable(1) ptr @_ZNSt12_Vector_baseIZL38nanobind_init_test_stl_bind_vector_extRN8nanobind7module_EE2ElSaIS3_EE19_M_get_Tp_allocatorEv(ptr noundef nonnull align 8 dereferenceable(24) %0) #8 align 2 {
  %2 = alloca ptr, align 8
  store ptr %0, ptr %2, align 8, !tbaa !679
  %3 = load ptr, ptr %2, align 8
  %4 = getelementptr inbounds nuw %"struct.std::_Vector_base.436", ptr %3, i32 0, i32 0
  ret ptr %4
}

; Function Attrs: mustprogress nounwind optsize uwtable
define internal void @_ZNSt12_Vector_baseIZL38nanobind_init_test_stl_bind_vector_extRN8nanobind7module_EE2ElSaIS3_EE17_Vector_impl_data12_M_swap_dataERS6_(ptr noundef nonnull align 8 dereferenceable(24) %0, ptr noundef nonnull align 8 dereferenceable(24) %1) #8 align 2 {
  %3 = alloca ptr, align 8
  %4 = alloca ptr, align 8
  %5 = alloca %"struct.std::_Vector_base<El, std::allocator<El>>::_Vector_impl_data", align 8
  store ptr %0, ptr %3, align 8, !tbaa !695
  store ptr %1, ptr %4, align 8, !tbaa !695
  %6 = load ptr, ptr %3, align 8
  call void @llvm.lifetime.start.p0(i64 24, ptr %5) #21
  call void @_ZNSt12_Vector_baseIZL38nanobind_init_test_stl_bind_vector_extRN8nanobind7module_EE2ElSaIS3_EE17_Vector_impl_dataC2Ev(ptr noundef nonnull align 8 dereferenceable(24) %5) #22
  call void @_ZNSt12_Vector_baseIZL38nanobind_init_test_stl_bind_vector_extRN8nanobind7module_EE2ElSaIS3_EE17_Vector_impl_data12_M_copy_dataERKS6_(ptr noundef nonnull align 8 dereferenceable(24) %5, ptr noundef nonnull align 8 dereferenceable(24) %6) #22
  %7 = load ptr, ptr %4, align 8, !tbaa !695
  call void @_ZNSt12_Vector_baseIZL38nanobind_init_test_stl_bind_vector_extRN8nanobind7module_EE2ElSaIS3_EE17_Vector_impl_data12_M_copy_dataERKS6_(ptr noundef nonnull align 8 dereferenceable(24) %6, ptr noundef nonnull align 8 dereferenceable(24) %7) #22
  %8 = load ptr, ptr %4, align 8, !tbaa !695
  call void @_ZNSt12_Vector_baseIZL38nanobind_init_test_stl_bind_vector_extRN8nanobind7module_EE2ElSaIS3_EE17_Vector_impl_data12_M_copy_dataERKS6_(ptr noundef nonnull align 8 dereferenceable(24) %8, ptr noundef nonnull align 8 dereferenceable(24) %5) #22
  call void @llvm.lifetime.end.p0(i64 24, ptr %5) #21
  ret void
}

; Function Attrs: mustprogress nounwind optsize uwtable
define internal void @_ZNSt15__new_allocatorIZL38nanobind_init_test_stl_bind_vector_extRN8nanobind7module_EE2ElED2Ev(ptr noundef nonnull align 1 dereferenceable(1) %0) unnamed_addr #8 align 2 {
  %2 = alloca ptr, align 8
  store ptr %0, ptr %2, align 8, !tbaa !681
  ret void
}

; Function Attrs: mustprogress nounwind optsize uwtable
define internal void @_ZNSt6vectorIZL38nanobind_init_test_stl_bind_vector_extRN8nanobind7module_EE2ElSaIS3_EEC2ERKS4_(ptr noundef nonnull align 8 dereferenceable(24) %0, ptr noundef nonnull align 1 dereferenceable(1) %1) unnamed_addr #8 align 2 {
  %3 = alloca ptr, align 8
  %4 = alloca ptr, align 8
  store ptr %0, ptr %3, align 8, !tbaa !672
  store ptr %1, ptr %4, align 8, !tbaa !677
  %5 = load ptr, ptr %3, align 8
  %6 = load ptr, ptr %4, align 8, !tbaa !677
  call void @_ZNSt12_Vector_baseIZL38nanobind_init_test_stl_bind_vector_extRN8nanobind7module_EE2ElSaIS3_EEC2ERKS4_(ptr noundef nonnull align 8 dereferenceable(24) %5, ptr noundef nonnull align 1 dereferenceable(1) %6) #22
  ret void
}

; Function Attrs: mustprogress nounwind optsize uwtable
define internal void @_ZNKSt12_Vector_baseIZL38nanobind_init_test_stl_bind_vector_extRN8nanobind7module_EE2ElSaIS3_EE13get_allocatorEv(ptr dead_on_unwind noalias writable sret(%"class.std::allocator.437") align 1 %0, ptr noundef nonnull align 8 dereferenceable(24) %1) #8 align 2 {
  %3 = alloca ptr, align 8
  %4 = alloca ptr, align 8
  store ptr %0, ptr %3, align 8
  store ptr %1, ptr %4, align 8, !tbaa !679
  %5 = load ptr, ptr %4, align 8
  %6 = call noundef nonnull align 1 dereferenceable(1) ptr @_ZNKSt12_Vector_baseIZL38nanobind_init_test_stl_bind_vector_extRN8nanobind7module_EE2ElSaIS3_EE19_M_get_Tp_allocatorEv(ptr noundef nonnull align 8 dereferenceable(24) %5) #22
  call void @_ZNSaIZL38nanobind_init_test_stl_bind_vector_extRN8nanobind7module_EE2ElEC2ERKS3_(ptr noundef nonnull align 1 dereferenceable(1) %0, ptr noundef nonnull align 1 dereferenceable(1) %6) #22
  ret void
}

; Function Attrs: mustprogress nounwind optsize uwtable
define internal void @_ZNSt6vectorIZL38nanobind_init_test_stl_bind_vector_extRN8nanobind7module_EE2ElSaIS3_EE14_M_move_assignEOS5_St17integral_constantIbLb1EE(ptr noundef nonnull align 8 dereferenceable(24) %0, ptr noundef nonnull align 8 dereferenceable(24) %1) #8 align 2 personality ptr @__gxx_personality_v0 {
  %3 = alloca ptr, align 8
  %4 = alloca ptr, align 8
  %5 = alloca %"class.std::vector.435", align 8
  %6 = alloca %"class.std::allocator.437", align 1
  store ptr %0, ptr %3, align 8, !tbaa !672
  store ptr %1, ptr %4, align 8, !tbaa !672
  %7 = load ptr, ptr %3, align 8
  call void @llvm.lifetime.start.p0(i64 24, ptr %5) #21
  call void @llvm.lifetime.start.p0(i64 1, ptr %6) #21
  call void @_ZNKSt12_Vector_baseIZL38nanobind_init_test_stl_bind_vector_extRN8nanobind7module_EE2ElSaIS3_EE13get_allocatorEv(ptr dead_on_unwind writable sret(%"class.std::allocator.437") align 1 %6, ptr noundef nonnull align 8 dereferenceable(24) %7) #22
  call void @_ZNSt6vectorIZL38nanobind_init_test_stl_bind_vector_extRN8nanobind7module_EE2ElSaIS3_EEC2ERKS4_(ptr noundef nonnull align 8 dereferenceable(24) %5, ptr noundef nonnull align 1 dereferenceable(1) %6) #22
  call void @_ZNSt15__new_allocatorIZL38nanobind_init_test_stl_bind_vector_extRN8nanobind7module_EE2ElED2Ev(ptr noundef nonnull align 1 dereferenceable(1) %6) #22
  call void @llvm.lifetime.end.p0(i64 1, ptr %6) #21
  %8 = getelementptr inbounds nuw %"struct.std::_Vector_base.436", ptr %7, i32 0, i32 0
  %9 = load ptr, ptr %4, align 8, !tbaa !672
  %10 = getelementptr inbounds nuw %"struct.std::_Vector_base.436", ptr %9, i32 0, i32 0
  call void @_ZNSt12_Vector_baseIZL38nanobind_init_test_stl_bind_vector_extRN8nanobind7module_EE2ElSaIS3_EE17_Vector_impl_data12_M_swap_dataERS6_(ptr noundef nonnull align 8 dereferenceable(24) %8, ptr noundef nonnull align 8 dereferenceable(24) %10) #22
  %11 = getelementptr inbounds nuw %"struct.std::_Vector_base.436", ptr %5, i32 0, i32 0
  %12 = load ptr, ptr %4, align 8, !tbaa !672
  %13 = getelementptr inbounds nuw %"struct.std::_Vector_base.436", ptr %12, i32 0, i32 0
  call void @_ZNSt12_Vector_baseIZL38nanobind_init_test_stl_bind_vector_extRN8nanobind7module_EE2ElSaIS3_EE17_Vector_impl_data12_M_swap_dataERS6_(ptr noundef nonnull align 8 dereferenceable(24) %11, ptr noundef nonnull align 8 dereferenceable(24) %13) #22
  %14 = call noundef nonnull align 1 dereferenceable(1) ptr @_ZNSt12_Vector_baseIZL38nanobind_init_test_stl_bind_vector_extRN8nanobind7module_EE2ElSaIS3_EE19_M_get_Tp_allocatorEv(ptr noundef nonnull align 8 dereferenceable(24) %7) #22
  %15 = load ptr, ptr %4, align 8, !tbaa !672
  %16 = call noundef nonnull align 1 dereferenceable(1) ptr @_ZNSt12_Vector_baseIZL38nanobind_init_test_stl_bind_vector_extRN8nanobind7module_EE2ElSaIS3_EE19_M_get_Tp_allocatorEv(ptr noundef nonnull align 8 dereferenceable(24) %15) #22
  invoke void @_ZSt15__alloc_on_moveISaIZL38nanobind_init_test_stl_bind_vector_extRN8nanobind7module_EE2ElEEvRT_S6_(ptr noundef nonnull align 1 dereferenceable(1) %14, ptr noundef nonnull align 1 dereferenceable(1) %16) #20
          to label %17 unwind label %18

17:                                               ; preds = %2
  call void @_ZNSt6vectorIZL38nanobind_init_test_stl_bind_vector_extRN8nanobind7module_EE2ElSaIS3_EED2Ev(ptr noundef nonnull align 8 dereferenceable(24) %5) #22
  call void @llvm.lifetime.end.p0(i64 24, ptr %5) #21
  ret void

18:                                               ; preds = %2
  %19 = landingpad { ptr, i32 }
          catch ptr null
  %20 = extractvalue { ptr, i32 } %19, 0
  call void @__clang_call_terminate(ptr %20) #23
  unreachable
}

; Function Attrs: mustprogress nounwind optsize uwtable
define internal noundef nonnull align 8 dereferenceable(24) ptr @_ZNSt6vectorIZL38nanobind_init_test_stl_bind_vector_extRN8nanobind7module_EE2ElSaIS3_EEaSEOS5_(ptr noundef nonnull align 8 dereferenceable(24) %0, ptr noundef nonnull align 8 dereferenceable(24) %1) #8 align 2 {
  %3 = alloca ptr, align 8
  %4 = alloca ptr, align 8
  %5 = alloca i8, align 1
  store ptr %0, ptr %3, align 8, !tbaa !672
  store ptr %1, ptr %4, align 8, !tbaa !672
  %6 = load ptr, ptr %3, align 8
  call void @llvm.lifetime.start.p0(i64 1, ptr %5) #21
  store i8 1, ptr %5, align 1, !tbaa !113
  %7 = load ptr, ptr %4, align 8, !tbaa !672
  call void @_ZNSt6vectorIZL38nanobind_init_test_stl_bind_vector_extRN8nanobind7module_EE2ElSaIS3_EE14_M_move_assignEOS5_St17integral_constantIbLb1EE(ptr noundef nonnull align 8 dereferenceable(24) %6, ptr noundef nonnull align 8 dereferenceable(24) %7) #22
  call void @llvm.lifetime.end.p0(i64 1, ptr %5) #21
  ret ptr %6
}