; Function Attrs: mustprogress nounwind optsize uwtable
define internal fastcc noundef nonnull align 8 dereferenceable(24) ptr @_ZNSt6vectorIZL38nanobind_init_test_stl_bind_vector_extRN8nanobind7module_EE2ElSaIS3_EEaSEOS5_(ptr noundef nonnull returned align 8 dereferenceable(24) initializes((8, 16)) %0, ptr noundef nonnull align 8 captures(none) dereferenceable(24) %1) unnamed_addr #7 align 2 personality ptr @__gxx_personality_v0 {
  %3 = load ptr, ptr %0, align 8, !tbaa !241
  %4 = getelementptr inbounds nuw i8, ptr %0, i64 8
  %5 = getelementptr inbounds nuw i8, ptr %0, i64 16
  %6 = load ptr, ptr %5, align 8, !tbaa !244
  %7 = load ptr, ptr %1, align 8, !tbaa !241
  store ptr %7, ptr %0, align 8, !tbaa !241
  %8 = getelementptr inbounds nuw i8, ptr %1, i64 8
  %9 = load ptr, ptr %8, align 8, !tbaa !243
  store ptr %9, ptr %4, align 8, !tbaa !243
  %10 = getelementptr inbounds nuw i8, ptr %1, i64 16
  %11 = load ptr, ptr %10, align 8, !tbaa !244
  store ptr %11, ptr %5, align 8, !tbaa !244
  %.not.i.i.i.i = icmp eq ptr %3, null
  tail call void @llvm.memset.p0.i64(ptr noundef nonnull align 8 dereferenceable(24) %1, i8 0, i64 24, i1 false)
  br i1 %.not.i.i.i.i, label %_ZNSt6vectorIZL38nanobind_init_test_stl_bind_vector_extRN8nanobind7module_EE2ElSaIS3_EE14_M_move_assignEOS5_St17integral_constantIbLb1EE.exit, label %12

12:                                               ; preds = %2
  %13 = ptrtoint ptr %6 to i64
  %14 = ptrtoint ptr %3 to i64
  %15 = sub i64 %13, %14
  tail call void @_ZdlPvm(ptr noundef nonnull %3, i64 noundef %15) #29
  br label %_ZNSt6vectorIZL38nanobind_init_test_stl_bind_vector_extRN8nanobind7module_EE2ElSaIS3_EE14_M_move_assignEOS5_St17integral_constantIbLb1EE.exit

_ZNSt6vectorIZL38nanobind_init_test_stl_bind_vector_extRN8nanobind7module_EE2ElSaIS3_EE14_M_move_assignEOS5_St17integral_constantIbLb1EE.exit: ; preds = %2, %12
  ret ptr %0
}